target datalayout = "e-m:e-p270:32:32-p271:32:32-p272:64:64-i64:64-i128:128-f80:128-n8:16:32:64-S128"
target triple = "x86_64-pc-linux-gnu"

%class.CProfileSample = type { i8 }

@.str.22 = private unnamed_addr constant [24 x i8] c"internalWriteBackBodies\00", align 1

; Function Attrs: mustprogress uwtable
define dso_local void @_ZN37btSequentialImpulseConstraintSolverMt23internalWriteBackBodiesEiiRK19btContactSolverInfo(ptr noundef nonnull align 8 dereferenceable(920) %0, i32 noundef %1, i32 noundef %2, ptr noundef nonnull align 4 dereferenceable(128) %3) #2 align 2 personality ptr @__gxx_personality_v0 {
  %5 = alloca ptr, align 8
  %6 = alloca i32, align 4
  %7 = alloca i32, align 4
  %8 = alloca ptr, align 8
  %9 = alloca %class.CProfileSample, align 1
  %10 = alloca ptr, align 8
  %11 = alloca i32, align 4
  store ptr %0, ptr %5, align 8, !tbaa !12
  store i32 %1, ptr %6, align 4, !tbaa !9
  store i32 %2, ptr %7, align 4, !tbaa !9
  store ptr %3, ptr %8, align 8, !tbaa !66
  %12 = load ptr, ptr %5, align 8
  call void @llvm.lifetime.start.p0(i64 1, ptr %9) #16
  call void @_ZN14CProfileSampleC1EPKc(ptr noundef nonnull align 1 dereferenceable(1) %9, ptr noundef @.str.22)
  %13 = load i32, ptr %6, align 4, !tbaa !9
  %14 = load i32, ptr %7, align 4, !tbaa !9
  %15 = load ptr, ptr %8, align 8, !tbaa !66
  invoke void @_ZN35btSequentialImpulseConstraintSolver15writeBackBodiesEiiRK19btContactSolverInfo(ptr noundef nonnull align 8 dereferenceable(408) %12, i32 noundef %13, i32 noundef %14, ptr noundef nonnull align 4 dereferenceable(128) %15)
          to label %16 unwind label %17

16:                                               ; preds = %4
  call void @_ZN14CProfileSampleD1Ev(ptr noundef nonnull align 1 dereferenceable(1) %9) #16
  call void @llvm.lifetime.end.p0(i64 1, ptr %9) #16
  ret void

17:                                               ; preds = %4
  %18 = landingpad { ptr, i32 }
          cleanup
  %19 = extractvalue { ptr, i32 } %18, 0
  store ptr %19, ptr %10, align 8
  %20 = extractvalue { ptr, i32 } %18, 1
  store i32 %20, ptr %11, align 4
  call void @_ZN14CProfileSampleD1Ev(ptr noundef nonnull align 1 dereferenceable(1) %9) #16
  call void @llvm.lifetime.end.p0(i64 1, ptr %9) #16
  br label %21

21:                                               ; preds = %17
  %22 = load ptr, ptr %10, align 8
  %23 = load i32, ptr %11, align 4
  %24 = insertvalue { ptr, i32 } poison, ptr %22, 0
  %25 = insertvalue { ptr, i32 } %24, i32 %23, 1
  resume { ptr, i32 } %25
}